target datalayout = "e-m:e-p270:32:32-p271:32:32-p272:64:64-i64:64-i128:128-f80:128-n8:16:32:64-S128"
target triple = "x86_64-unknown-linux-gnu"

%"class.zmq::stream_engine_base_t" = type <{ %"class.zmq::io_object_t", %"struct.zmq::i_engine", %"struct.zmq::options_t", ptr, i64, ptr, ptr, i64, ptr, ptr, { i64, i64 }, { i64, i64 }, ptr, i8, i8, [6 x i8], %"struct.zmq::endpoint_uri_pair_t", i8, i8, i8, i8, [4 x i8], %"class.std::__cxx11::basic_string", i32, [4 x i8], ptr, i8, i8, [6 x i8], %"class.zmq::msg_t", i8, [7 x i8], ptr, ptr, i8, [7 x i8] }>
%"class.zmq::io_object_t" = type { %"struct.zmq::i_poll_events", ptr }
%"struct.zmq::i_poll_events" = type { ptr }
%"struct.zmq::i_engine" = type { ptr }
%"struct.zmq::options_t" = type { i32, i32, i64, i8, [256 x i8], i32, i32, i32, i32, i32, i32, i32, i32, i8, %"struct.zmq::atomic_value_t", i32, i32, i32, i32, i32, i32, i64, i32, i32, i8, i32, i8, i8, i8, i8, i8, %"class.std::__cxx11::basic_string", %"class.std::__cxx11::basic_string", %"class.std::__cxx11::basic_string", i32, i32, i32, i32, %"class.std::vector", %"class.std::set", %"class.std::set", %"class.std::set.6", i32, i32, %"class.std::__cxx11::basic_string", %"class.std::__cxx11::basic_string", %"class.std::__cxx11::basic_string", [32 x i8], [32 x i8], [32 x i8], %"class.std::__cxx11::basic_string", %"class.std::__cxx11::basic_string", i32, i32, i8, i32, i8, i32, i8, i16, i32, i32, i32, %"class.std::__cxx11::basic_string", i8, i8, i8, i32, i32, i8, i32, %"class.std::map", i32, %"class.std::__cxx11::basic_string", %"class.std::__cxx11::basic_string", %"class.std::__cxx11::basic_string", %"class.std::__cxx11::basic_string", i8, %"class.std::vector.21", i8, %"class.std::vector.21", i8, %"class.std::vector.21", i8, i32, i8, i32, i32, i32, i32, i32, i8, i32 }
%"struct.zmq::atomic_value_t" = type { %"struct.std::atomic" }
%"struct.std::atomic" = type { %"struct.std::__atomic_base" }
%"struct.std::__atomic_base" = type { i32 }
%"class.std::vector" = type { %"struct.std::_Vector_base" }
%"struct.std::_Vector_base" = type { %"struct.std::_Vector_base<zmq::tcp_address_mask_t, std::allocator<zmq::tcp_address_mask_t>>::_Vector_impl" }
%"struct.std::_Vector_base<zmq::tcp_address_mask_t, std::allocator<zmq::tcp_address_mask_t>>::_Vector_impl" = type { %"struct.std::_Vector_base<zmq::tcp_address_mask_t, std::allocator<zmq::tcp_address_mask_t>>::_Vector_impl_data" }
%"struct.std::_Vector_base<zmq::tcp_address_mask_t, std::allocator<zmq::tcp_address_mask_t>>::_Vector_impl_data" = type { ptr, ptr, ptr }
%"class.std::set" = type { %"class.std::_Rb_tree" }
%"class.std::_Rb_tree" = type { %"struct.std::_Rb_tree<unsigned int, unsigned int, std::_Identity<unsigned int>, std::less<unsigned int>>::_Rb_tree_impl" }
%"struct.std::_Rb_tree<unsigned int, unsigned int, std::_Identity<unsigned int>, std::less<unsigned int>>::_Rb_tree_impl" = type { %"struct.std::_Rb_tree_key_compare", %"struct.std::_Rb_tree_header" }
%"struct.std::_Rb_tree_key_compare" = type { %"struct.std::less" }
%"struct.std::less" = type { i8 }
%"struct.std::_Rb_tree_header" = type { %"struct.std::_Rb_tree_node_base", i64 }
%"struct.std::_Rb_tree_node_base" = type { i32, ptr, ptr, ptr }
%"class.std::set.6" = type { %"class.std::_Rb_tree.7" }
%"class.std::_Rb_tree.7" = type { %"struct.std::_Rb_tree<int, int, std::_Identity<int>, std::less<int>>::_Rb_tree_impl" }
%"struct.std::_Rb_tree<int, int, std::_Identity<int>, std::less<int>>::_Rb_tree_impl" = type { %"struct.std::_Rb_tree_key_compare.11", %"struct.std::_Rb_tree_header" }
%"struct.std::_Rb_tree_key_compare.11" = type { %"struct.std::less.12" }
%"struct.std::less.12" = type { i8 }
%"class.std::map" = type { %"class.std::_Rb_tree.14" }
%"class.std::_Rb_tree.14" = type { %"struct.std::_Rb_tree<std::__cxx11::basic_string<char>, std::pair<const std::__cxx11::basic_string<char>, std::__cxx11::basic_string<char>>, std::_Select1st<std::pair<const std::__cxx11::basic_string<char>, std::__cxx11::basic_string<char>>>, std::less<std::__cxx11::basic_string<char>>>::_Rb_tree_impl" }
%"struct.std::_Rb_tree<std::__cxx11::basic_string<char>, std::pair<const std::__cxx11::basic_string<char>, std::__cxx11::basic_string<char>>, std::_Select1st<std::pair<const std::__cxx11::basic_string<char>, std::__cxx11::basic_string<char>>>, std::less<std::__cxx11::basic_string<char>>>::_Rb_tree_impl" = type { %"struct.std::_Rb_tree_key_compare.18", %"struct.std::_Rb_tree_header" }
%"struct.std::_Rb_tree_key_compare.18" = type { %"struct.std::less.19" }
%"struct.std::less.19" = type { i8 }
%"class.std::vector.21" = type { %"struct.std::_Vector_base.22" }
%"struct.std::_Vector_base.22" = type { %"struct.std::_Vector_base<unsigned char, std::allocator<unsigned char>>::_Vector_impl" }
%"struct.std::_Vector_base<unsigned char, std::allocator<unsigned char>>::_Vector_impl" = type { %"struct.std::_Vector_base<unsigned char, std::allocator<unsigned char>>::_Vector_impl_data" }
%"struct.std::_Vector_base<unsigned char, std::allocator<unsigned char>>::_Vector_impl_data" = type { ptr, ptr, ptr }
%"struct.zmq::endpoint_uri_pair_t" = type <{ %"class.std::__cxx11::basic_string", %"class.std::__cxx11::basic_string", i32, [4 x i8] }>
%"class.std::__cxx11::basic_string" = type { %"struct.std::__cxx11::basic_string<char>::_Alloc_hider", i64, %union.anon }
%"struct.std::__cxx11::basic_string<char>::_Alloc_hider" = type { ptr }
%union.anon = type { i64, [8 x i8] }
%"class.zmq::msg_t" = type { %union.anon.26 }
%union.anon.26 = type { %struct.anon }
%struct.anon = type { ptr, [34 x i8], i8, i8, i32, %"union.zmq::msg_t::group_t" }
%"union.zmq::msg_t::group_t" = type { %struct.anon.28 }
%struct.anon.28 = type { i8, ptr }
%"struct.zmq::blob_t" = type <{ ptr, i64, i8, [7 x i8] }>

@stderr = external global ptr, align 8
@.str = private unnamed_addr constant [12 x i8] c"%s (%s:%d)\0A\00", align 1
@.str.1 = private unnamed_addr constant [118 x i8] c"generated/home/dtcxzyw/WorkSpace/Projects/compilers/llvm-opt-benchmark/bench/libzmq/libzmq/src/stream_engine_base.cpp\00", align 1
@.str.2 = private unnamed_addr constant [30 x i8] c"Assertion failed: %s (%s:%d)\0A\00", align 1
@.str.13 = private unnamed_addr constant [17 x i8] c"_session != NULL\00", align 1
@.str.15 = private unnamed_addr constant [19 x i8] c"_mechanism != NULL\00", align 1
@.str.19 = private unnamed_addr constant [8 x i8] c"rc == 0\00", align 1

; Function Attrs: mustprogress nounwind uwtable
define linkonce_odr noundef ptr @_ZNK3zmq6blob_t4dataEv(ptr noundef nonnull align 8 dereferenceable(17) %this) #2 comdat align 2 {
entry:
  %this.addr = alloca ptr, align 8
  store ptr %this, ptr %this.addr, align 8
  %this1 = load ptr, ptr %this.addr, align 8
  %_data = getelementptr inbounds %"struct.zmq::blob_t", ptr %this1, i32 0, i32 0
  %0 = load ptr, ptr %_data, align 8
  ret ptr %0
}

; Function Attrs: mustprogress nounwind uwtable
define linkonce_odr noundef i64 @_ZNK3zmq6blob_t4sizeEv(ptr noundef nonnull align 8 dereferenceable(17) %this) #2 comdat align 2 {
entry:
  %this.addr = alloca ptr, align 8
  store ptr %this, ptr %this.addr, align 8
  %this1 = load ptr, ptr %this.addr, align 8
  %_size = getelementptr inbounds %"struct.zmq::blob_t", ptr %this1, i32 0, i32 1
  %0 = load i64, ptr %_size, align 8
  ret i64 %0
}

; Function Attrs: mustprogress uwtable
define noundef i32 @_ZN3zmq20stream_engine_base_t16write_credentialEPNS_5msg_tE(ptr noundef nonnull align 8 dereferenceable(1689) %this, ptr noundef %msg_) #0 align 2 {
entry:
  %retval = alloca i32, align 4
  %this.addr = alloca ptr, align 8
  %msg_.addr = alloca ptr, align 8
  %credential = alloca ptr, align 8
  %msg = alloca %"class.zmq::msg_t", align 8
  %rc = alloca i32, align 4
  %errstr = alloca ptr, align 8
  store ptr %this, ptr %this.addr, align 8
  store ptr %msg_, ptr %msg_.addr, align 8
  %this1 = load ptr, ptr %this.addr, align 8
  br label %do.body

do.body:                                          ; preds = %entry
  %_mechanism = getelementptr inbounds %"class.zmq::stream_engine_base_t", ptr %this1, i32 0, i32 9
  %0 = load ptr, ptr %_mechanism, align 8
  %cmp = icmp ne ptr %0, null
  %lnot = xor i1 %cmp, true
  br i1 %lnot, label %if.then, label %if.end

if.then:                                          ; preds = %do.body
  %1 = load ptr, ptr @stderr, align 8
  %call = call i32 (ptr, ptr, ...) @fprintf(ptr noundef %1, ptr noundef @.str.2, ptr noundef @.str.15, ptr noundef @.str.1, i32 noundef 586)
  %2 = load ptr, ptr @stderr, align 8
  %call2 = call i32 @fflush(ptr noundef %2)
  call void @_ZN3zmq9zmq_abortEPKc(ptr noundef @.str.15)
  br label %if.end

if.end:                                           ; preds = %if.then, %do.body
  br label %do.end

do.end:                                           ; preds = %if.end
  br label %do.body3

do.body3:                                         ; preds = %do.end
  %_session = getelementptr inbounds %"class.zmq::stream_engine_base_t", ptr %this1, i32 0, i32 32
  %3 = load ptr, ptr %_session, align 8
  %cmp4 = icmp ne ptr %3, null
  %lnot5 = xor i1 %cmp4, true
  br i1 %lnot5, label %if.then6, label %if.end9

if.then6:                                         ; preds = %do.body3
  %4 = load ptr, ptr @stderr, align 8
  %call7 = call i32 (ptr, ptr, ...) @fprintf(ptr noundef %4, ptr noundef @.str.2, ptr noundef @.str.13, ptr noundef @.str.1, i32 noundef 587)
  %5 = load ptr, ptr @stderr, align 8
  %call8 = call i32 @fflush(ptr noundef %5)
  call void @_ZN3zmq9zmq_abortEPKc(ptr noundef @.str.13)
  br label %if.end9

if.end9:                                          ; preds = %if.then6, %do.body3
  br label %do.end10

do.end10:                                         ; preds = %if.end9
  %_mechanism11 = getelementptr inbounds %"class.zmq::stream_engine_base_t", ptr %this1, i32 0, i32 9
  %6 = load ptr, ptr %_mechanism11, align 8
  %call12 = call noundef nonnull align 8 dereferenceable(17) ptr @_ZNK3zmq11mechanism_t11get_user_idEv(ptr noundef nonnull align 8 dereferenceable(1488) %6)
  store ptr %call12, ptr %credential, align 8
  %7 = load ptr, ptr %credential, align 8
  %call13 = call noundef i64 @_ZNK3zmq6blob_t4sizeEv(ptr noundef nonnull align 8 dereferenceable(17) %7)
  %cmp14 = icmp ugt i64 %call13, 0
  br i1 %cmp14, label %if.then15, label %if.end45

if.then15:                                        ; preds = %do.end10
  %8 = load ptr, ptr %credential, align 8
  %call16 = call noundef i64 @_ZNK3zmq6blob_t4sizeEv(ptr noundef nonnull align 8 dereferenceable(17) %8)
  %call17 = call noundef i32 @_ZN3zmq5msg_t9init_sizeEm(ptr noundef nonnull align 8 dereferenceable(64) %msg, i64 noundef %call16)
  store i32 %call17, ptr %rc, align 4
  br label %do.body18

do.body18:                                        ; preds = %if.then15
  %9 = load i32, ptr %rc, align 4
  %cmp19 = icmp eq i32 %9, 0
  %lnot20 = xor i1 %cmp19, true
  br i1 %lnot20, label %if.then21, label %if.end24

if.then21:                                        ; preds = %do.body18
  %10 = load ptr, ptr @stderr, align 8
  %call22 = call i32 (ptr, ptr, ...) @fprintf(ptr noundef %10, ptr noundef @.str.2, ptr noundef @.str.19, ptr noundef @.str.1, i32 noundef 593)
  %11 = load ptr, ptr @stderr, align 8
  %call23 = call i32 @fflush(ptr noundef %11)
  call void @_ZN3zmq9zmq_abortEPKc(ptr noundef @.str.19)
  br label %if.end24

if.end24:                                         ; preds = %if.then21, %do.body18
  br label %do.end25

do.end25:                                         ; preds = %if.end24
  %call26 = call noundef ptr @_ZN3zmq5msg_t4dataEv(ptr noundef nonnull align 8 dereferenceable(64) %msg)
  %12 = load ptr, ptr %credential, align 8
  %call27 = call noundef ptr @_ZNK3zmq6blob_t4dataEv(ptr noundef nonnull align 8 dereferenceable(17) %12)
  %13 = load ptr, ptr %credential, align 8
  %call28 = call noundef i64 @_ZNK3zmq6blob_t4sizeEv(ptr noundef nonnull align 8 dereferenceable(17) %13)
  call void @llvm.memcpy.p0.p0.i64(ptr align 1 %call26, ptr align 1 %call27, i64 %call28, i1 false)
  call void @_ZN3zmq5msg_t9set_flagsEh(ptr noundef nonnull align 8 dereferenceable(64) %msg, i8 noundef zeroext 32)
  %_session29 = getelementptr inbounds %"class.zmq::stream_engine_base_t", ptr %this1, i32 0, i32 32
  %14 = load ptr, ptr %_session29, align 8
  %vtable = load ptr, ptr %14, align 8
  %vfn = getelementptr inbounds ptr, ptr %vtable, i64 29
  %15 = load ptr, ptr %vfn, align 8
  %call30 = call noundef i32 %15(ptr noundef nonnull align 8 dereferenceable(1624) %14, ptr noundef %msg)
  store i32 %call30, ptr %rc, align 4
  %16 = load i32, ptr %rc, align 4
  %cmp31 = icmp eq i32 %16, -1
  br i1 %cmp31, label %if.then32, label %if.end44

if.then32:                                        ; preds = %do.end25
  %call33 = call noundef i32 @_ZN3zmq5msg_t5closeEv(ptr noundef nonnull align 8 dereferenceable(64) %msg)
  store i32 %call33, ptr %rc, align 4
  br label %do.body34

do.body34:                                        ; preds = %if.then32
  %17 = load i32, ptr %rc, align 4
  %cmp35 = icmp eq i32 %17, 0
  %lnot36 = xor i1 %cmp35, true
  br i1 %lnot36, label %if.then37, label %if.end42

if.then37:                                        ; preds = %do.body34
  %call38 = call ptr @__errno_location() #16
  %18 = load i32, ptr %call38, align 4
  %call39 = call ptr @strerror(i32 noundef %18) #15
  store ptr %call39, ptr %errstr, align 8
  %19 = load ptr, ptr @stderr, align 8
  %20 = load ptr, ptr %errstr, align 8
  %call40 = call i32 (ptr, ptr, ...) @fprintf(ptr noundef %19, ptr noundef @.str, ptr noundef %20, ptr noundef @.str.1, i32 noundef 599)
  %21 = load ptr, ptr @stderr, align 8
  %call41 = call i32 @fflush(ptr noundef %21)
  %22 = load ptr, ptr %errstr, align 8
  call void @_ZN3zmq9zmq_abortEPKc(ptr noundef %22)
  br label %if.end42

if.end42:                                         ; preds = %if.then37, %do.body34
  br label %do.end43

do.end43:                                         ; preds = %if.end42
  store i32 -1, ptr %retval, align 4
  br label %return

if.end44:                                         ; preds = %do.end25
  br label %if.end45

if.end45:                                         ; preds = %if.end44, %do.end10
  %_process_msg = getelementptr inbounds %"class.zmq::stream_engine_base_t", ptr %this1, i32 0, i32 11
  store { i64, i64 } { i64 105, i64 0 }, ptr %_process_msg, align 8
  %23 = load ptr, ptr %msg_.addr, align 8
  %vtable46 = load ptr, ptr %this1, align 8
  %vfn47 = getelementptr inbounds ptr, ptr %vtable46, i64 13
  %24 = load ptr, ptr %vfn47, align 8
  %call48 = call noundef i32 %24(ptr noundef nonnull align 8 dereferenceable(1689) %this1, ptr noundef %23)
  store i32 %call48, ptr %retval, align 4
  br label %return

return:                                           ; preds = %if.end45, %do.end43
  %25 = load i32, ptr %retval, align 4
  ret i32 %25
}