; Function Attrs: mustprogress uwtable
define noundef i32 @_ZN3zmq20stream_engine_base_t16write_credentialEPNS_5msg_tE(ptr noundef nonnull align 8 dereferenceable(1689) %this, ptr noundef %msg_) #0 align 2 {
entry:
  %msg = alloca %"class.zmq::msg_t", align 8
  %_mechanism = getelementptr inbounds i8, ptr %this, i64 1408
  %0 = load ptr, ptr %_mechanism, align 8
  %cmp.not = icmp eq ptr %0, null
  br i1 %cmp.not, label %if.then, label %do.body3

if.then:                                          ; preds = %entry
  %1 = load ptr, ptr @stderr, align 8
  %call = tail call i32 (ptr, ptr, ...) @fprintf(ptr noundef %1, ptr noundef nonnull @.str.2, ptr noundef nonnull @.str.15, ptr noundef nonnull @.str.1, i32 noundef 586) #21
  %2 = load ptr, ptr @stderr, align 8
  %call2 = tail call i32 @fflush(ptr noundef %2)
  tail call void @_ZN3zmq9zmq_abortEPKc(ptr noundef nonnull @.str.15)
  br label %do.body3

do.body3:                                         ; preds = %if.then, %entry
  %_session = getelementptr inbounds i8, ptr %this, i64 1672
  %3 = load ptr, ptr %_session, align 8
  %cmp4.not = icmp eq ptr %3, null
  br i1 %cmp4.not, label %if.then6, label %do.end10

if.then6:                                         ; preds = %do.body3
  %4 = load ptr, ptr @stderr, align 8
  %call7 = tail call i32 (ptr, ptr, ...) @fprintf(ptr noundef %4, ptr noundef nonnull @.str.2, ptr noundef nonnull @.str.13, ptr noundef nonnull @.str.1, i32 noundef 587) #21
  %5 = load ptr, ptr @stderr, align 8
  %call8 = tail call i32 @fflush(ptr noundef %5)
  tail call void @_ZN3zmq9zmq_abortEPKc(ptr noundef nonnull @.str.13)
  br label %do.end10

do.end10:                                         ; preds = %do.body3, %if.then6
  %6 = load ptr, ptr %_mechanism, align 8
  %call12 = tail call noundef nonnull align 8 dereferenceable(17) ptr @_ZNK3zmq11mechanism_t11get_user_idEv(ptr noundef nonnull align 8 dereferenceable(1488) %6)
  %_size.i = getelementptr inbounds i8, ptr %call12, i64 8
  %7 = load i64, ptr %_size.i, align 8
  %cmp14.not = icmp eq i64 %7, 0
  br i1 %cmp14.not, label %if.end45, label %if.then15

if.then15:                                        ; preds = %do.end10
  %call17 = call noundef i32 @_ZN3zmq5msg_t9init_sizeEm(ptr noundef nonnull align 8 dereferenceable(64) %msg, i64 noundef %7)
  %cmp19.not = icmp eq i32 %call17, 0
  br i1 %cmp19.not, label %do.end25, label %if.then21

if.then21:                                        ; preds = %if.then15
  %8 = load ptr, ptr @stderr, align 8
  %call22 = call i32 (ptr, ptr, ...) @fprintf(ptr noundef %8, ptr noundef nonnull @.str.2, ptr noundef nonnull @.str.19, ptr noundef nonnull @.str.1, i32 noundef 593) #21
  %9 = load ptr, ptr @stderr, align 8
  %call23 = call i32 @fflush(ptr noundef %9)
  call void @_ZN3zmq9zmq_abortEPKc(ptr noundef nonnull @.str.19)
  br label %do.end25

do.end25:                                         ; preds = %if.then15, %if.then21
  %call26 = call noundef ptr @_ZN3zmq5msg_t4dataEv(ptr noundef nonnull align 8 dereferenceable(64) %msg)
  %10 = load ptr, ptr %call12, align 8
  %11 = load i64, ptr %_size.i, align 8
  call void @llvm.memcpy.p0.p0.i64(ptr align 1 %call26, ptr align 1 %10, i64 %11, i1 false)
  call void @_ZN3zmq5msg_t9set_flagsEh(ptr noundef nonnull align 8 dereferenceable(64) %msg, i8 noundef zeroext 32)
  %12 = load ptr, ptr %_session, align 8
  %vtable = load ptr, ptr %12, align 8
  %vfn = getelementptr inbounds i8, ptr %vtable, i64 232
  %13 = load ptr, ptr %vfn, align 8
  %call30 = call noundef i32 %13(ptr noundef nonnull align 8 dereferenceable(1624) %12, ptr noundef nonnull %msg)
  %cmp31 = icmp eq i32 %call30, -1
  br i1 %cmp31, label %if.then32, label %if.end45

if.then32:                                        ; preds = %do.end25
  %call33 = call noundef i32 @_ZN3zmq5msg_t5closeEv(ptr noundef nonnull align 8 dereferenceable(64) %msg)
  %cmp35.not = icmp eq i32 %call33, 0
  br i1 %cmp35.not, label %return, label %if.then37

if.then37:                                        ; preds = %if.then32
  %call38 = tail call ptr @__errno_location() #20
  %14 = load i32, ptr %call38, align 4
  %call39 = call ptr @strerror(i32 noundef %14) #19
  %15 = load ptr, ptr @stderr, align 8
  %call40 = call i32 (ptr, ptr, ...) @fprintf(ptr noundef %15, ptr noundef nonnull @.str, ptr noundef %call39, ptr noundef nonnull @.str.1, i32 noundef 599) #21
  %16 = load ptr, ptr @stderr, align 8
  %call41 = call i32 @fflush(ptr noundef %16)
  call void @_ZN3zmq9zmq_abortEPKc(ptr noundef %call39)
  br label %return

if.end45:                                         ; preds = %do.end25, %do.end10
  %_process_msg = getelementptr inbounds i8, ptr %this, i64 1432
  store i64 105, ptr %_process_msg, align 8
  %_process_msg.repack7 = getelementptr inbounds i8, ptr %this, i64 1440
  store i64 0, ptr %_process_msg.repack7, align 8
  %vtable46 = load ptr, ptr %this, align 8
  %vfn47 = getelementptr inbounds i8, ptr %vtable46, i64 104
  %17 = load ptr, ptr %vfn47, align 8
  %call48 = call noundef i32 %17(ptr noundef nonnull align 8 dereferenceable(1689) %this, ptr noundef %msg_)
  br label %return

return:                                           ; preds = %if.then37, %if.then32, %if.end45
  %retval.0 = phi i32 [ %call48, %if.end45 ], [ -1, %if.then32 ], [ -1, %if.then37 ]
  ret i32 %retval.0
}